target datalayout = "e-m:e-p270:32:32-p271:32:32-p272:64:64-i64:64-i128:128-f80:128-n8:16:32:64-S128"
target triple = "x86_64-pc-linux-gnu"

; Function Attrs: nounwind uwtable
define ptr @ossl_d2i_PUBKEY_legacy(ptr noundef %0, ptr noundef %1, i64 noundef %2) #0 {
  %4 = alloca ptr, align 8
  %5 = alloca ptr, align 8
  %6 = alloca i64, align 8
  store ptr %0, ptr %4, align 8, !tbaa !37
  store ptr %1, ptr %5, align 8, !tbaa !3
  store i64 %2, ptr %6, align 8, !tbaa !8
  %7 = load ptr, ptr %4, align 8, !tbaa !37
  %8 = load ptr, ptr %5, align 8, !tbaa !3
  %9 = load i64, ptr %6, align 8, !tbaa !8
  %10 = call ptr @d2i_PUBKEY_int(ptr noundef %7, ptr noundef %8, i64 noundef %9, ptr noundef null, ptr noundef null, i32 noundef 1, ptr noundef @d2i_X509_PUBKEY)
  ret ptr %10
}

; Function Attrs: nounwind uwtable
define ptr @d2i_EC_PUBKEY(ptr noundef %0, ptr noundef %1, i64 noundef %2) #0 {
  %4 = alloca ptr, align 8
  %5 = alloca ptr, align 8
  %6 = alloca ptr, align 8
  %7 = alloca i64, align 8
  %8 = alloca ptr, align 8
  %9 = alloca ptr, align 8
  %10 = alloca ptr, align 8
  %11 = alloca i32, align 4
  %12 = alloca i32, align 4
  store ptr %0, ptr %5, align 8, !tbaa !86
  store ptr %1, ptr %6, align 8, !tbaa !3
  store i64 %2, ptr %7, align 8, !tbaa !8
  call void @llvm.lifetime.start.p0(i64 8, ptr %8) #5
  call void @llvm.lifetime.start.p0(i64 8, ptr %9) #5
  store ptr null, ptr %9, align 8, !tbaa !88
  call void @llvm.lifetime.start.p0(i64 8, ptr %10) #5
  call void @llvm.lifetime.start.p0(i64 4, ptr %11) #5
  %13 = load ptr, ptr %6, align 8, !tbaa !3
  %14 = load ptr, ptr %13, align 8, !tbaa !12
  store ptr %14, ptr %10, align 8, !tbaa !12
  %15 = load i64, ptr %7, align 8, !tbaa !8
  %16 = call ptr @ossl_d2i_PUBKEY_legacy(ptr noundef null, ptr noundef %10, i64 noundef %15)
  store ptr %16, ptr %8, align 8, !tbaa !46
  %17 = load ptr, ptr %8, align 8, !tbaa !46
  %18 = icmp eq ptr %17, null
  br i1 %18, label %19, label %20

19:                                               ; preds = %3
  store ptr null, ptr %4, align 8
  store i32 1, ptr %12, align 4
  br label %48

20:                                               ; preds = %3
  %21 = load ptr, ptr %8, align 8, !tbaa !46
  %22 = call i32 @EVP_PKEY_get_id(ptr noundef %21)
  store i32 %22, ptr %11, align 4, !tbaa !43
  %23 = load i32, ptr %11, align 4, !tbaa !43
  %24 = icmp eq i32 %23, 408
  br i1 %24, label %28, label %25

25:                                               ; preds = %20
  %26 = load i32, ptr %11, align 4, !tbaa !43
  %27 = icmp eq i32 %26, 1172
  br i1 %27, label %28, label %31

28:                                               ; preds = %25, %20
  %29 = load ptr, ptr %8, align 8, !tbaa !46
  %30 = call ptr @EVP_PKEY_get1_EC_KEY(ptr noundef %29)
  store ptr %30, ptr %9, align 8, !tbaa !88
  br label %31

31:                                               ; preds = %28, %25
  %32 = load ptr, ptr %8, align 8, !tbaa !46
  call void @EVP_PKEY_free(ptr noundef %32)
  %33 = load ptr, ptr %9, align 8, !tbaa !88
  %34 = icmp eq ptr %33, null
  br i1 %34, label %35, label %36

35:                                               ; preds = %31
  store ptr null, ptr %4, align 8
  store i32 1, ptr %12, align 4
  br label %48

36:                                               ; preds = %31
  %37 = load ptr, ptr %10, align 8, !tbaa !12
  %38 = load ptr, ptr %6, align 8, !tbaa !3
  store ptr %37, ptr %38, align 8, !tbaa !12
  %39 = load ptr, ptr %5, align 8, !tbaa !86
  %40 = icmp ne ptr %39, null
  br i1 %40, label %41, label %46

41:                                               ; preds = %36
  %42 = load ptr, ptr %5, align 8, !tbaa !86
  %43 = load ptr, ptr %42, align 8, !tbaa !88
  call void @EC_KEY_free(ptr noundef %43)
  %44 = load ptr, ptr %9, align 8, !tbaa !88
  %45 = load ptr, ptr %5, align 8, !tbaa !86
  store ptr %44, ptr %45, align 8, !tbaa !88
  br label %46

46:                                               ; preds = %41, %36
  %47 = load ptr, ptr %9, align 8, !tbaa !88
  store ptr %47, ptr %4, align 8
  store i32 1, ptr %12, align 4
  br label %48

48:                                               ; preds = %46, %35, %19
  call void @llvm.lifetime.end.p0(i64 4, ptr %11) #5
  call void @llvm.lifetime.end.p0(i64 8, ptr %10) #5
  call void @llvm.lifetime.end.p0(i64 8, ptr %9) #5
  call void @llvm.lifetime.end.p0(i64 8, ptr %8) #5
  %49 = load ptr, ptr %4, align 8
  ret ptr %49
}