; Function Attrs: nounwind uwtable
define ptr @d2i_EC_PUBKEY(ptr noundef captures(address_is_null) %0, ptr noundef captures(none) %1, i64 noundef %2) local_unnamed_addr #0 {
  %4 = alloca ptr, align 8
  call void @llvm.lifetime.start.p0(i64 8, ptr nonnull %4) #9
  %5 = load ptr, ptr %1, align 8, !tbaa !46
  store ptr %5, ptr %4, align 8, !tbaa !46
  %6 = call fastcc ptr @d2i_PUBKEY_int(ptr noundef null, ptr noundef nonnull %4, i64 noundef %2, ptr noundef null, ptr noundef null, i32 noundef 1)
  %7 = icmp eq ptr %6, null
  br i1 %7, label %17, label %8

8:                                                ; preds = %3
  %9 = tail call i32 @EVP_PKEY_get_id(ptr noundef nonnull %6) #9
  switch i32 %9, label %.thread [
    i32 1172, label %10
    i32 408, label %10
  ]

.thread:                                          ; preds = %8
  tail call void @EVP_PKEY_free(ptr noundef nonnull %6) #9
  br label %17

10:                                               ; preds = %8, %8
  %11 = tail call ptr @EVP_PKEY_get1_EC_KEY(ptr noundef nonnull %6) #9
  tail call void @EVP_PKEY_free(ptr noundef nonnull %6) #9
  %12 = icmp eq ptr %11, null
  br i1 %12, label %17, label %13

13:                                               ; preds = %10
  %14 = load ptr, ptr %4, align 8, !tbaa !46
  store ptr %14, ptr %1, align 8, !tbaa !46
  %.not = icmp eq ptr %0, null
  br i1 %.not, label %17, label %15

15:                                               ; preds = %13
  %16 = load ptr, ptr %0, align 8, !tbaa !62
  tail call void @EC_KEY_free(ptr noundef %16) #9
  store ptr %11, ptr %0, align 8, !tbaa !62
  br label %17

17:                                               ; preds = %.thread, %13, %15, %10, %3
  %.0 = phi ptr [ null, %3 ], [ null, %10 ], [ %11, %15 ], [ %11, %13 ], [ null, %.thread ]
  call void @llvm.lifetime.end.p0(i64 8, ptr nonnull %4) #9
  ret ptr %.0
}